target datalayout = "e-m:e-p270:32:32-p271:32:32-p272:64:64-i64:64-i128:128-f80:128-n8:16:32:64-S128"
target triple = "x86_64-pc-linux-gnu"

%"struct.grpc_core::DNSResolver::LookupTaskHandle" = type { [2 x i64] }

; Function Attrs: mustprogress nounwind uwtable
define noundef zeroext i1 @_ZN9grpc_coreeqERKNS_11DNSResolver16LookupTaskHandleES3_(ptr noundef nonnull align 8 dereferenceable(16) %0, ptr noundef nonnull align 8 dereferenceable(16) %1) #5 {
  %3 = alloca ptr, align 8
  %4 = alloca ptr, align 8
  store ptr %0, ptr %3, align 8, !tbaa !10
  store ptr %1, ptr %4, align 8, !tbaa !10
  %5 = load ptr, ptr %3, align 8, !tbaa !10
  %6 = getelementptr inbounds nuw %"struct.grpc_core::DNSResolver::LookupTaskHandle", ptr %5, i32 0, i32 0
  %7 = getelementptr inbounds [2 x i64], ptr %6, i64 0, i64 0
  %8 = load i64, ptr %7, align 8, !tbaa !12
  %9 = load ptr, ptr %4, align 8, !tbaa !10
  %10 = getelementptr inbounds nuw %"struct.grpc_core::DNSResolver::LookupTaskHandle", ptr %9, i32 0, i32 0
  %11 = getelementptr inbounds [2 x i64], ptr %10, i64 0, i64 0
  %12 = load i64, ptr %11, align 8, !tbaa !12
  %13 = icmp eq i64 %8, %12
  br i1 %13, label %14, label %24

14:                                               ; preds = %2
  %15 = load ptr, ptr %3, align 8, !tbaa !10
  %16 = getelementptr inbounds nuw %"struct.grpc_core::DNSResolver::LookupTaskHandle", ptr %15, i32 0, i32 0
  %17 = getelementptr inbounds [2 x i64], ptr %16, i64 0, i64 1
  %18 = load i64, ptr %17, align 8, !tbaa !12
  %19 = load ptr, ptr %4, align 8, !tbaa !10
  %20 = getelementptr inbounds nuw %"struct.grpc_core::DNSResolver::LookupTaskHandle", ptr %19, i32 0, i32 0
  %21 = getelementptr inbounds [2 x i64], ptr %20, i64 0, i64 1
  %22 = load i64, ptr %21, align 8, !tbaa !12
  %23 = icmp eq i64 %18, %22
  br label %24

24:                                               ; preds = %14, %2
  %25 = phi i1 [ false, %2 ], [ %23, %14 ]
  ret i1 %25
}