; Function Attrs: mustprogress nofree norecurse nosync nounwind willreturn memory(argmem: read) uwtable
define noundef zeroext i1 @_ZN9grpc_coreeqERKNS_11DNSResolver16LookupTaskHandleES3_(ptr noundef nonnull readonly align 8 captures(none) dereferenceable(16) %0, ptr noundef nonnull readonly align 8 captures(none) dereferenceable(16) %1) local_unnamed_addr #5 {
  %3 = load i64, ptr %0, align 8, !tbaa !22
  %4 = load i64, ptr %1, align 8, !tbaa !22
  %5 = icmp eq i64 %3, %4
  %6 = getelementptr inbounds nuw i8, ptr %0, i64 8
  %7 = load i64, ptr %6, align 8
  %8 = getelementptr inbounds nuw i8, ptr %1, i64 8
  %9 = load i64, ptr %8, align 8
  %10 = icmp eq i64 %7, %9
  %11 = select i1 %5, i1 %10, i1 false
  ret i1 %11
}